target datalayout = "e-m:e-p270:32:32-p271:32:32-p272:64:64-i64:64-i128:128-f80:128-n8:16:32:64-S128"
target triple = "x86_64-pc-linux-gnu"

%struct.mbedtls_ecp_group = type { i32, %struct.mbedtls_mpi, %struct.mbedtls_mpi, %struct.mbedtls_mpi, %struct.mbedtls_ecp_point, %struct.mbedtls_mpi, i64, i64, i32, ptr, ptr, ptr, ptr, ptr, i64 }
%struct.mbedtls_ecp_point = type { %struct.mbedtls_mpi, %struct.mbedtls_mpi, %struct.mbedtls_mpi }
%struct.mbedtls_mpi = type { ptr, i16, i16 }

; Function Attrs: nounwind uwtable
define hidden i32 @mbedtls_ecp_copy(ptr noundef %0, ptr noundef %1) #0 {
  %3 = alloca ptr, align 8
  %4 = alloca ptr, align 8
  %5 = alloca i32, align 4
  store ptr %0, ptr %3, align 8, !tbaa !34
  store ptr %1, ptr %4, align 8, !tbaa !34
  call void @llvm.lifetime.start.p0(i64 4, ptr %5) #11
  store i32 -110, ptr %5, align 4, !tbaa !3
  br label %6

6:                                                ; preds = %2
  %7 = load ptr, ptr %3, align 8, !tbaa !34
  %8 = getelementptr inbounds nuw %struct.mbedtls_ecp_point, ptr %7, i32 0, i32 0
  %9 = load ptr, ptr %4, align 8, !tbaa !34
  %10 = getelementptr inbounds nuw %struct.mbedtls_ecp_point, ptr %9, i32 0, i32 0
  %11 = call i32 @mbedtls_mpi_copy(ptr noundef %8, ptr noundef %10)
  store i32 %11, ptr %5, align 4, !tbaa !3
  %12 = icmp ne i32 %11, 0
  br i1 %12, label %13, label %14

13:                                               ; preds = %6
  br label %39

14:                                               ; preds = %6
  br label %15

15:                                               ; preds = %14
  br label %16

16:                                               ; preds = %15
  br label %17

17:                                               ; preds = %16
  %18 = load ptr, ptr %3, align 8, !tbaa !34
  %19 = getelementptr inbounds nuw %struct.mbedtls_ecp_point, ptr %18, i32 0, i32 1
  %20 = load ptr, ptr %4, align 8, !tbaa !34
  %21 = getelementptr inbounds nuw %struct.mbedtls_ecp_point, ptr %20, i32 0, i32 1
  %22 = call i32 @mbedtls_mpi_copy(ptr noundef %19, ptr noundef %21)
  store i32 %22, ptr %5, align 4, !tbaa !3
  %23 = icmp ne i32 %22, 0
  br i1 %23, label %24, label %25

24:                                               ; preds = %17
  br label %39

25:                                               ; preds = %17
  br label %26

26:                                               ; preds = %25
  br label %27

27:                                               ; preds = %26
  br label %28

28:                                               ; preds = %27
  %29 = load ptr, ptr %3, align 8, !tbaa !34
  %30 = getelementptr inbounds nuw %struct.mbedtls_ecp_point, ptr %29, i32 0, i32 2
  %31 = load ptr, ptr %4, align 8, !tbaa !34
  %32 = getelementptr inbounds nuw %struct.mbedtls_ecp_point, ptr %31, i32 0, i32 2
  %33 = call i32 @mbedtls_mpi_copy(ptr noundef %30, ptr noundef %32)
  store i32 %33, ptr %5, align 4, !tbaa !3
  %34 = icmp ne i32 %33, 0
  br i1 %34, label %35, label %36

35:                                               ; preds = %28
  br label %39

36:                                               ; preds = %28
  br label %37

37:                                               ; preds = %36
  br label %38

38:                                               ; preds = %37
  br label %39

39:                                               ; preds = %38, %35, %24, %13
  %40 = load i32, ptr %5, align 4, !tbaa !3
  call void @llvm.lifetime.end.p0(i64 4, ptr %5) #11
  ret i32 %40
}

; Function Attrs: nounwind uwtable
define hidden i32 @mbedtls_ecp_set_zero(ptr noundef %0) #0 {
  %2 = alloca ptr, align 8
  %3 = alloca i32, align 4
  store ptr %0, ptr %2, align 8, !tbaa !34
  call void @llvm.lifetime.start.p0(i64 4, ptr %3) #11
  store i32 -110, ptr %3, align 4, !tbaa !3
  br label %4

4:                                                ; preds = %1
  %5 = load ptr, ptr %2, align 8, !tbaa !34
  %6 = getelementptr inbounds nuw %struct.mbedtls_ecp_point, ptr %5, i32 0, i32 0
  %7 = call i32 @mbedtls_mpi_lset(ptr noundef %6, i64 noundef 1)
  store i32 %7, ptr %3, align 4, !tbaa !3
  %8 = icmp ne i32 %7, 0
  br i1 %8, label %9, label %10

9:                                                ; preds = %4
  br label %31

10:                                               ; preds = %4
  br label %11

11:                                               ; preds = %10
  br label %12

12:                                               ; preds = %11
  br label %13

13:                                               ; preds = %12
  %14 = load ptr, ptr %2, align 8, !tbaa !34
  %15 = getelementptr inbounds nuw %struct.mbedtls_ecp_point, ptr %14, i32 0, i32 1
  %16 = call i32 @mbedtls_mpi_lset(ptr noundef %15, i64 noundef 1)
  store i32 %16, ptr %3, align 4, !tbaa !3
  %17 = icmp ne i32 %16, 0
  br i1 %17, label %18, label %19

18:                                               ; preds = %13
  br label %31

19:                                               ; preds = %13
  br label %20

20:                                               ; preds = %19
  br label %21

21:                                               ; preds = %20
  br label %22

22:                                               ; preds = %21
  %23 = load ptr, ptr %2, align 8, !tbaa !34
  %24 = getelementptr inbounds nuw %struct.mbedtls_ecp_point, ptr %23, i32 0, i32 2
  %25 = call i32 @mbedtls_mpi_lset(ptr noundef %24, i64 noundef 0)
  store i32 %25, ptr %3, align 4, !tbaa !3
  %26 = icmp ne i32 %25, 0
  br i1 %26, label %27, label %28

27:                                               ; preds = %22
  br label %31

28:                                               ; preds = %22
  br label %29

29:                                               ; preds = %28
  br label %30

30:                                               ; preds = %29
  br label %31

31:                                               ; preds = %30, %27, %18, %9
  %32 = load i32, ptr %3, align 4, !tbaa !3
  call void @llvm.lifetime.end.p0(i64 4, ptr %3) #11
  ret i32 %32
}

; Function Attrs: nounwind uwtable
define internal i32 @mbedtls_ecp_mul_shortcuts(ptr noundef %0, ptr noundef %1, ptr noundef %2, ptr noundef %3, ptr noundef %4) #0 {
  %6 = alloca i32, align 4
  %7 = alloca ptr, align 8
  %8 = alloca ptr, align 8
  %9 = alloca ptr, align 8
  %10 = alloca ptr, align 8
  %11 = alloca ptr, align 8
  %12 = alloca i32, align 4
  %13 = alloca %struct.mbedtls_mpi, align 8
  %14 = alloca i8, align 1
  %15 = alloca i32, align 4
  store ptr %0, ptr %7, align 8, !tbaa !25
  store ptr %1, ptr %8, align 8, !tbaa !34
  store ptr %2, ptr %9, align 8, !tbaa !50
  store ptr %3, ptr %10, align 8, !tbaa !34
  store ptr %4, ptr %11, align 8, !tbaa !55
  call void @llvm.lifetime.start.p0(i64 4, ptr %12) #11
  store i32 -110, ptr %12, align 4, !tbaa !3
  call void @llvm.lifetime.start.p0(i64 16, ptr %13) #11
  call void @mbedtls_mpi_init(ptr noundef %13)
  %16 = load ptr, ptr %9, align 8, !tbaa !50
  %17 = call i32 @mbedtls_mpi_cmp_int(ptr noundef %16, i64 noundef 0)
  %18 = icmp eq i32 %17, 0
  br i1 %18, label %19, label %37

19:                                               ; preds = %5
  br label %20

20:                                               ; preds = %19
  %21 = load ptr, ptr %7, align 8, !tbaa !25
  %22 = load ptr, ptr %10, align 8, !tbaa !34
  %23 = call i32 @mbedtls_ecp_check_pubkey(ptr noundef %21, ptr noundef %22)
  store i32 %23, ptr %12, align 4, !tbaa !3
  %24 = icmp ne i32 %23, 0
  br i1 %24, label %25, label %26

25:                                               ; preds = %20
  br label %135

26:                                               ; preds = %20
  br label %27

27:                                               ; preds = %26
  br label %28

28:                                               ; preds = %27
  br label %29

29:                                               ; preds = %28
  %30 = load ptr, ptr %8, align 8, !tbaa !34
  %31 = call i32 @mbedtls_ecp_set_zero(ptr noundef %30)
  store i32 %31, ptr %12, align 4, !tbaa !3
  %32 = icmp ne i32 %31, 0
  br i1 %32, label %33, label %34

33:                                               ; preds = %29
  br label %135

34:                                               ; preds = %29
  br label %35

35:                                               ; preds = %34
  br label %36

36:                                               ; preds = %35
  br label %134

37:                                               ; preds = %5
  %38 = load ptr, ptr %9, align 8, !tbaa !50
  %39 = call i32 @mbedtls_mpi_cmp_int(ptr noundef %38, i64 noundef 1)
  %40 = icmp eq i32 %39, 0
  br i1 %40, label %41, label %60

41:                                               ; preds = %37
  br label %42

42:                                               ; preds = %41
  %43 = load ptr, ptr %7, align 8, !tbaa !25
  %44 = load ptr, ptr %10, align 8, !tbaa !34
  %45 = call i32 @mbedtls_ecp_check_pubkey(ptr noundef %43, ptr noundef %44)
  store i32 %45, ptr %12, align 4, !tbaa !3
  %46 = icmp ne i32 %45, 0
  br i1 %46, label %47, label %48

47:                                               ; preds = %42
  br label %135

48:                                               ; preds = %42
  br label %49

49:                                               ; preds = %48
  br label %50

50:                                               ; preds = %49
  br label %51

51:                                               ; preds = %50
  %52 = load ptr, ptr %8, align 8, !tbaa !34
  %53 = load ptr, ptr %10, align 8, !tbaa !34
  %54 = call i32 @mbedtls_ecp_copy(ptr noundef %52, ptr noundef %53)
  store i32 %54, ptr %12, align 4, !tbaa !3
  %55 = icmp ne i32 %54, 0
  br i1 %55, label %56, label %57

56:                                               ; preds = %51
  br label %135

57:                                               ; preds = %51
  br label %58

58:                                               ; preds = %57
  br label %59

59:                                               ; preds = %58
  br label %133

60:                                               ; preds = %37
  %61 = load ptr, ptr %9, align 8, !tbaa !50
  %62 = call i32 @mbedtls_mpi_cmp_int(ptr noundef %61, i64 noundef -1)
  %63 = icmp eq i32 %62, 0
  br i1 %63, label %64, label %119

64:                                               ; preds = %60
  br label %65

65:                                               ; preds = %64
  %66 = load ptr, ptr %7, align 8, !tbaa !25
  %67 = load ptr, ptr %10, align 8, !tbaa !34
  %68 = call i32 @mbedtls_ecp_check_pubkey(ptr noundef %66, ptr noundef %67)
  store i32 %68, ptr %12, align 4, !tbaa !3
  %69 = icmp ne i32 %68, 0
  br i1 %69, label %70, label %71

70:                                               ; preds = %65
  br label %135

71:                                               ; preds = %65
  br label %72

72:                                               ; preds = %71
  br label %73

73:                                               ; preds = %72
  br label %74

74:                                               ; preds = %73
  %75 = load ptr, ptr %8, align 8, !tbaa !34
  %76 = load ptr, ptr %10, align 8, !tbaa !34
  %77 = call i32 @mbedtls_ecp_copy(ptr noundef %75, ptr noundef %76)
  store i32 %77, ptr %12, align 4, !tbaa !3
  %78 = icmp ne i32 %77, 0
  br i1 %78, label %79, label %80

79:                                               ; preds = %74
  br label %135

80:                                               ; preds = %74
  br label %81

81:                                               ; preds = %80
  br label %82

82:                                               ; preds = %81
  br label %83

83:                                               ; preds = %82
  call void @llvm.lifetime.start.p0(i64 1, ptr %14) #11
  %84 = load ptr, ptr %8, align 8, !tbaa !34
  %85 = getelementptr inbounds nuw %struct.mbedtls_ecp_point, ptr %84, i32 0, i32 1
  %86 = call i32 @mbedtls_mpi_cmp_int(ptr noundef %85, i64 noundef 0)
  %87 = icmp ne i32 %86, 0
  %88 = zext i1 %87 to i32
  %89 = trunc i32 %88 to i8
  store i8 %89, ptr %14, align 1, !tbaa !49
  br label %90

90:                                               ; preds = %83
  %91 = load ptr, ptr %7, align 8, !tbaa !25
  %92 = getelementptr inbounds nuw %struct.mbedtls_ecp_group, ptr %91, i32 0, i32 1
  %93 = load ptr, ptr %8, align 8, !tbaa !34
  %94 = getelementptr inbounds nuw %struct.mbedtls_ecp_point, ptr %93, i32 0, i32 1
  %95 = call i32 @mbedtls_mpi_sub_mpi(ptr noundef %13, ptr noundef %92, ptr noundef %94)
  store i32 %95, ptr %12, align 4, !tbaa !3
  %96 = icmp ne i32 %95, 0
  br i1 %96, label %97, label %98

97:                                               ; preds = %90
  store i32 4, ptr %15, align 4
  br label %114

98:                                               ; preds = %90
  br label %99

99:                                               ; preds = %98
  br label %100

100:                                              ; preds = %99
  br label %101

101:                                              ; preds = %100
  %102 = load ptr, ptr %8, align 8, !tbaa !34
  %103 = getelementptr inbounds nuw %struct.mbedtls_ecp_point, ptr %102, i32 0, i32 1
  %104 = load i8, ptr %14, align 1, !tbaa !49
  %105 = zext i8 %104 to i32
  %106 = and i32 %105, 1
  %107 = trunc i32 %106 to i8
  %108 = call i32 @mbedtls_mpi_safe_cond_assign(ptr noundef %103, ptr noundef %13, i8 noundef zeroext %107)
  store i32 %108, ptr %12, align 4, !tbaa !3
  %109 = icmp ne i32 %108, 0
  br i1 %109, label %110, label %111

110:                                              ; preds = %101
  store i32 4, ptr %15, align 4
  br label %114

111:                                              ; preds = %101
  br label %112

112:                                              ; preds = %111
  br label %113

113:                                              ; preds = %112
  store i32 0, ptr %15, align 4
  br label %114

114:                                              ; preds = %110, %97, %113
  call void @llvm.lifetime.end.p0(i64 1, ptr %14) #11
  %115 = load i32, ptr %15, align 4
  switch i32 %115, label %137 [
    i32 0, label %116
    i32 4, label %135
  ]

116:                                              ; preds = %114
  br label %117

117:                                              ; preds = %116
  br label %118

118:                                              ; preds = %117
  br label %132

119:                                              ; preds = %60
  br label %120

120:                                              ; preds = %119
  %121 = load ptr, ptr %7, align 8, !tbaa !25
  %122 = load ptr, ptr %8, align 8, !tbaa !34
  %123 = load ptr, ptr %9, align 8, !tbaa !50
  %124 = load ptr, ptr %10, align 8, !tbaa !34
  %125 = load ptr, ptr %11, align 8, !tbaa !55
  %126 = call i32 @ecp_mul_restartable_internal(ptr noundef %121, ptr noundef %122, ptr noundef %123, ptr noundef %124, ptr noundef null, ptr noundef null, ptr noundef %125)
  store i32 %126, ptr %12, align 4, !tbaa !3
  %127 = icmp ne i32 %126, 0
  br i1 %127, label %128, label %129

128:                                              ; preds = %120
  br label %135

129:                                              ; preds = %120
  br label %130

130:                                              ; preds = %129
  br label %131

131:                                              ; preds = %130
  br label %132

132:                                              ; preds = %131, %118
  br label %133

133:                                              ; preds = %132, %59
  br label %134

134:                                              ; preds = %133, %36
  br label %135

135:                                              ; preds = %134, %114, %128, %79, %70, %56, %47, %33, %25
  call void @mbedtls_mpi_free(ptr noundef %13)
  %136 = load i32, ptr %12, align 4, !tbaa !3
  store i32 %136, ptr %6, align 4
  store i32 1, ptr %15, align 4
  br label %137

137:                                              ; preds = %135, %114
  call void @llvm.lifetime.end.p0(i64 16, ptr %13) #11
  call void @llvm.lifetime.end.p0(i64 4, ptr %12) #11
  %138 = load i32, ptr %6, align 4
  ret i32 %138
}