; Function Attrs: nounwind uwtable
define internal fastcc i32 @mbedtls_ecp_mul_shortcuts(ptr noundef %0, ptr noundef %1, ptr noundef %2, ptr noundef %3) unnamed_addr #7 {
  %5 = alloca %struct.mbedtls_mpi, align 8
  call void @llvm.lifetime.start.p0(i64 16, ptr nonnull %5) #21
  call void @mbedtls_mpi_init(ptr noundef nonnull %5) #21
  %6 = call i32 @mbedtls_mpi_cmp_int(ptr noundef %2, i64 noundef 0) #21
  %7 = icmp eq i32 %6, 0
  br i1 %7, label %8, label %18

8:                                                ; preds = %4
  %9 = call i32 @mbedtls_ecp_check_pubkey(ptr noundef %0, ptr noundef %3)
  %.not39 = icmp eq i32 %9, 0
  br i1 %.not39, label %10, label %mbedtls_ecp_set_zero.exit

10:                                               ; preds = %8
  %11 = call i32 @mbedtls_mpi_lset(ptr noundef %1, i64 noundef 1) #21
  %.not.i = icmp eq i32 %11, 0
  br i1 %.not.i, label %12, label %mbedtls_ecp_set_zero.exit

12:                                               ; preds = %10
  %13 = getelementptr inbounds nuw i8, ptr %1, i64 16
  %14 = call i32 @mbedtls_mpi_lset(ptr noundef nonnull %13, i64 noundef 1) #21
  %.not5.i = icmp eq i32 %14, 0
  br i1 %.not5.i, label %15, label %mbedtls_ecp_set_zero.exit

15:                                               ; preds = %12
  %16 = getelementptr inbounds nuw i8, ptr %1, i64 32
  %17 = call i32 @mbedtls_mpi_lset(ptr noundef nonnull %16, i64 noundef 0) #21
  br label %mbedtls_ecp_set_zero.exit

18:                                               ; preds = %4
  %19 = call i32 @mbedtls_mpi_cmp_int(ptr noundef %2, i64 noundef 1) #21
  %20 = icmp eq i32 %19, 0
  br i1 %20, label %21, label %33

21:                                               ; preds = %18
  %22 = call i32 @mbedtls_ecp_check_pubkey(ptr noundef %0, ptr noundef %3)
  %.not38 = icmp eq i32 %22, 0
  br i1 %.not38, label %23, label %mbedtls_ecp_set_zero.exit

23:                                               ; preds = %21
  %24 = call i32 @mbedtls_mpi_copy(ptr noundef %1, ptr noundef %3) #21
  %.not.i41 = icmp eq i32 %24, 0
  br i1 %.not.i41, label %25, label %mbedtls_ecp_set_zero.exit

25:                                               ; preds = %23
  %26 = getelementptr inbounds nuw i8, ptr %1, i64 16
  %27 = getelementptr inbounds nuw i8, ptr %3, i64 16
  %28 = call i32 @mbedtls_mpi_copy(ptr noundef nonnull %26, ptr noundef nonnull %27) #21
  %.not8.i = icmp eq i32 %28, 0
  br i1 %.not8.i, label %29, label %mbedtls_ecp_set_zero.exit

29:                                               ; preds = %25
  %30 = getelementptr inbounds nuw i8, ptr %1, i64 32
  %31 = getelementptr inbounds nuw i8, ptr %3, i64 32
  %32 = call i32 @mbedtls_mpi_copy(ptr noundef nonnull %30, ptr noundef nonnull %31) #21
  br label %mbedtls_ecp_set_zero.exit

33:                                               ; preds = %18
  %34 = call i32 @mbedtls_mpi_cmp_int(ptr noundef %2, i64 noundef -1) #21
  %35 = icmp eq i32 %34, 0
  br i1 %35, label %36, label %55

36:                                               ; preds = %33
  %37 = call i32 @mbedtls_ecp_check_pubkey(ptr noundef %0, ptr noundef %3)
  %.not = icmp eq i32 %37, 0
  br i1 %.not, label %38, label %mbedtls_ecp_set_zero.exit

38:                                               ; preds = %36
  %39 = call i32 @mbedtls_mpi_copy(ptr noundef %1, ptr noundef %3) #21
  %.not.i43 = icmp eq i32 %39, 0
  br i1 %.not.i43, label %40, label %mbedtls_ecp_set_zero.exit

40:                                               ; preds = %38
  %41 = getelementptr inbounds nuw i8, ptr %1, i64 16
  %42 = getelementptr inbounds nuw i8, ptr %3, i64 16
  %43 = call i32 @mbedtls_mpi_copy(ptr noundef nonnull %41, ptr noundef nonnull %42) #21
  %.not8.i45 = icmp eq i32 %43, 0
  br i1 %.not8.i45, label %mbedtls_ecp_copy.exit46, label %mbedtls_ecp_set_zero.exit

mbedtls_ecp_copy.exit46:                          ; preds = %40
  %44 = getelementptr inbounds nuw i8, ptr %1, i64 32
  %45 = getelementptr inbounds nuw i8, ptr %3, i64 32
  %46 = call i32 @mbedtls_mpi_copy(ptr noundef nonnull %44, ptr noundef nonnull %45) #21
  %.not35 = icmp eq i32 %46, 0
  br i1 %.not35, label %47, label %mbedtls_ecp_set_zero.exit

47:                                               ; preds = %mbedtls_ecp_copy.exit46
  %48 = call i32 @mbedtls_mpi_cmp_int(ptr noundef nonnull %41, i64 noundef 0) #21
  %49 = getelementptr inbounds nuw i8, ptr %0, i64 8
  %50 = call i32 @mbedtls_mpi_sub_mpi(ptr noundef nonnull %5, ptr noundef nonnull %49, ptr noundef nonnull %41) #21
  %.not36 = icmp eq i32 %50, 0
  br i1 %.not36, label %51, label %mbedtls_ecp_set_zero.exit

51:                                               ; preds = %47
  %52 = icmp ne i32 %48, 0
  %53 = zext i1 %52 to i8
  %54 = call i32 @mbedtls_mpi_safe_cond_assign(ptr noundef nonnull %41, ptr noundef nonnull %5, i8 noundef zeroext %53) #21
  br label %mbedtls_ecp_set_zero.exit

55:                                               ; preds = %33
  %56 = call fastcc i32 @ecp_mul_restartable_internal(ptr noundef %0, ptr noundef %1, ptr noundef %2, ptr noundef %3, ptr noundef null, ptr noundef null)
  br label %mbedtls_ecp_set_zero.exit

mbedtls_ecp_set_zero.exit:                        ; preds = %40, %38, %29, %25, %23, %15, %12, %10, %47, %51, %55, %mbedtls_ecp_copy.exit46, %36, %21, %8
  %.027 = phi i32 [ %9, %8 ], [ %22, %21 ], [ %37, %36 ], [ %46, %mbedtls_ecp_copy.exit46 ], [ %56, %55 ], [ %50, %47 ], [ %54, %51 ], [ %11, %10 ], [ %14, %12 ], [ %17, %15 ], [ %24, %23 ], [ %28, %25 ], [ %32, %29 ], [ %43, %40 ], [ %39, %38 ]
  call void @mbedtls_mpi_free(ptr noundef nonnull %5) #21
  call void @llvm.lifetime.end.p0(i64 16, ptr nonnull %5) #21
  ret i32 %.027
}